target datalayout = "e-m:e-p270:32:32-p271:32:32-p272:64:64-i64:64-i128:128-f80:128-n8:16:32:64-S128"
target triple = "x86_64-pc-linux-gnu"

%struct.VLCElem = type { %union.anon.1 }
%union.anon.1 = type { %struct.anon }
%struct.anon = type { i16, i16 }
%struct.VLCInitState = type { ptr, i32 }

@__const.decode_init_static.state = private unnamed_addr constant { ptr, i32, [4 x i8] } { ptr @decode_init_static.vlc_buf, i32 6020, [4 x i8] zeroinitializer }, align 8
@sf_vlc = internal global [616 x %struct.VLCElem] zeroinitializer, align 16
@sf_rl_vlc = internal global [1406 x %struct.VLCElem] zeroinitializer, align 16
@coef_vlc = internal global [2 x ptr] zeroinitializer, align 16
@vec4_vlc = internal global [604 x %struct.VLCElem] zeroinitializer, align 16
@vec2_vlc = internal global [562 x %struct.VLCElem] zeroinitializer, align 16
@vec1_vlc = internal global [562 x %struct.VLCElem] zeroinitializer, align 16
@sin64 = internal global [33 x float] zeroinitializer, align 16

; Function Attrs: cold nounwind optsize uwtable
define internal void @decode_init_static() #0 {
  %1 = alloca %struct.VLCInitState, align 8
  %2 = alloca i32, align 4
  %3 = alloca i32, align 4
  call void @llvm.lifetime.start.p0(i64 16, ptr %1) #11
  call void @llvm.memcpy.p0.p0.i64(ptr align 8 %1, ptr align 8 @__const.decode_init_static.state, i64 16, i1 false)
  call void @ff_vlc_init_table_from_lengths(ptr noundef @sf_vlc, i32 noundef 616, i32 noundef 8, i32 noundef 121, ptr noundef getelementptr inbounds ([2 x i8], ptr @scale_table, i64 0, i64 1), i32 noundef 2, ptr noundef @scale_table, i32 noundef 2, i32 noundef 1, i32 noundef -60, i32 noundef 0)
  call void @ff_vlc_init_table_from_lengths(ptr noundef @sf_rl_vlc, i32 noundef 1406, i32 noundef 9, i32 noundef 120, ptr noundef getelementptr inbounds ([2 x i8], ptr @scale_rl_table, i64 0, i64 1), i32 noundef 2, ptr noundef @scale_rl_table, i32 noundef 2, i32 noundef 1, i32 noundef 0, i32 noundef 0)
  %4 = call ptr @ff_vlc_init_tables_from_lengths(ptr noundef %1, i32 noundef 9, i32 noundef 272, ptr noundef @coef0_lens, i32 noundef 1, ptr noundef @coef0_syms, i32 noundef 2, i32 noundef 2, i32 noundef 0, i32 noundef 0)
  store ptr %4, ptr @coef_vlc, align 16, !tbaa !136
  %5 = call ptr @ff_vlc_init_tables_from_lengths(ptr noundef %1, i32 noundef 9, i32 noundef 244, ptr noundef getelementptr inbounds ([2 x i8], ptr @coef1_table, i64 0, i64 1), i32 noundef 2, ptr noundef @coef1_table, i32 noundef 2, i32 noundef 1, i32 noundef 0, i32 noundef 0)
  store ptr %5, ptr getelementptr inbounds ([2 x ptr], ptr @coef_vlc, i64 0, i64 1), align 8, !tbaa !136
  call void @ff_vlc_init_table_from_lengths(ptr noundef @vec4_vlc, i32 noundef 604, i32 noundef 9, i32 noundef 127, ptr noundef @vec4_lens, i32 noundef 1, ptr noundef @vec4_syms, i32 noundef 2, i32 noundef 2, i32 noundef -1, i32 noundef 0)
  call void @ff_vlc_init_table_from_lengths(ptr noundef @vec2_vlc, i32 noundef 562, i32 noundef 9, i32 noundef 137, ptr noundef getelementptr inbounds ([2 x i8], ptr @vec2_table, i64 0, i64 1), i32 noundef 2, ptr noundef @vec2_table, i32 noundef 2, i32 noundef 1, i32 noundef -1, i32 noundef 0)
  call void @ff_vlc_init_table_from_lengths(ptr noundef @vec1_vlc, i32 noundef 562, i32 noundef 9, i32 noundef 101, ptr noundef getelementptr inbounds ([2 x i8], ptr @vec1_table, i64 0, i64 1), i32 noundef 2, ptr noundef @vec1_table, i32 noundef 2, i32 noundef 1, i32 noundef 0, i32 noundef 0)
  call void @llvm.lifetime.start.p0(i64 4, ptr %2) #11
  store i32 0, ptr %2, align 4, !tbaa !47
  br label %6

6:                                                ; preds = %20, %0
  %7 = load i32, ptr %2, align 4, !tbaa !47
  %8 = icmp slt i32 %7, 33
  br i1 %8, label %10, label %9

9:                                                ; preds = %6
  call void @llvm.lifetime.end.p0(i64 4, ptr %2) #11
  br label %23

10:                                               ; preds = %6
  %11 = load i32, ptr %2, align 4, !tbaa !47
  %12 = sitofp i32 %11 to double
  %13 = fmul nsz double %12, 0x400921FB54442D18
  %14 = fdiv nsz double %13, 6.400000e+01
  %15 = call nsz double @llvm.sin.f64(double %14)
  %16 = fptrunc nsz double %15 to float
  %17 = load i32, ptr %2, align 4, !tbaa !47
  %18 = sext i32 %17 to i64
  %19 = getelementptr inbounds [33 x float], ptr @sin64, i64 0, i64 %18
  store float %16, ptr %19, align 4, !tbaa !123
  br label %20

20:                                               ; preds = %10
  %21 = load i32, ptr %2, align 4, !tbaa !47
  %22 = add nsw i32 %21, 1
  store i32 %22, ptr %2, align 4, !tbaa !47
  br label %6, !llvm.loop !138

23:                                               ; preds = %9
  call void @llvm.lifetime.start.p0(i64 4, ptr %3) #11
  store i32 6, ptr %3, align 4, !tbaa !47
  br label %24

24:                                               ; preds = %30, %23
  %25 = load i32, ptr %3, align 4, !tbaa !47
  %26 = icmp sle i32 %25, 13
  br i1 %26, label %28, label %27

27:                                               ; preds = %24
  call void @llvm.lifetime.end.p0(i64 4, ptr %3) #11
  br label %33

28:                                               ; preds = %24
  %29 = load i32, ptr %3, align 4, !tbaa !47
  call void @ff_init_ff_sine_windows(i32 noundef %29)
  br label %30

30:                                               ; preds = %28
  %31 = load i32, ptr %3, align 4, !tbaa !47
  %32 = add nsw i32 %31, 1
  store i32 %32, ptr %3, align 4, !tbaa !47
  br label %24, !llvm.loop !139

33:                                               ; preds = %27
  call void @llvm.lifetime.end.p0(i64 16, ptr %1) #11
  ret void
}