; Function Attrs: cold nounwind optsize uwtable
define internal void @decode_init_static() #0 {
  %1 = alloca %struct.VLCInitState, align 8
  call void @llvm.lifetime.start.p0(i64 16, ptr nonnull %1) #11
  call void @llvm.memcpy.p0.p0.i64(ptr noundef nonnull align 8 dereferenceable(16) %1, ptr noundef nonnull align 8 dereferenceable(16) @__const.decode_init_static.state, i64 16, i1 false)
  tail call void @ff_vlc_init_table_from_lengths(ptr noundef nonnull @sf_vlc, i32 noundef 616, i32 noundef 8, i32 noundef 121, ptr noundef nonnull getelementptr inbounds nuw (i8, ptr @scale_table, i64 1), i32 noundef 2, ptr noundef nonnull @scale_table, i32 noundef 2, i32 noundef 1, i32 noundef -60, i32 noundef 0) #11
  tail call void @ff_vlc_init_table_from_lengths(ptr noundef nonnull @sf_rl_vlc, i32 noundef 1406, i32 noundef 9, i32 noundef 120, ptr noundef nonnull getelementptr inbounds nuw (i8, ptr @scale_rl_table, i64 1), i32 noundef 2, ptr noundef nonnull @scale_rl_table, i32 noundef 2, i32 noundef 1, i32 noundef 0, i32 noundef 0) #11
  %2 = call ptr @ff_vlc_init_tables_from_lengths(ptr noundef nonnull %1, i32 noundef 9, i32 noundef 272, ptr noundef nonnull @coef0_lens, i32 noundef 1, ptr noundef nonnull @coef0_syms, i32 noundef 2, i32 noundef 2, i32 noundef 0, i32 noundef 0) #11
  store ptr %2, ptr @coef_vlc, align 16, !tbaa !128
  %3 = call ptr @ff_vlc_init_tables_from_lengths(ptr noundef nonnull %1, i32 noundef 9, i32 noundef 244, ptr noundef nonnull getelementptr inbounds nuw (i8, ptr @coef1_table, i64 1), i32 noundef 2, ptr noundef nonnull @coef1_table, i32 noundef 2, i32 noundef 1, i32 noundef 0, i32 noundef 0) #11
  store ptr %3, ptr getelementptr inbounds nuw (i8, ptr @coef_vlc, i64 8), align 8, !tbaa !128
  call void @ff_vlc_init_table_from_lengths(ptr noundef nonnull @vec4_vlc, i32 noundef 604, i32 noundef 9, i32 noundef 127, ptr noundef nonnull @vec4_lens, i32 noundef 1, ptr noundef nonnull @vec4_syms, i32 noundef 2, i32 noundef 2, i32 noundef -1, i32 noundef 0) #11
  call void @ff_vlc_init_table_from_lengths(ptr noundef nonnull @vec2_vlc, i32 noundef 562, i32 noundef 9, i32 noundef 137, ptr noundef nonnull getelementptr inbounds nuw (i8, ptr @vec2_table, i64 1), i32 noundef 2, ptr noundef nonnull @vec2_table, i32 noundef 2, i32 noundef 1, i32 noundef -1, i32 noundef 0) #11
  call void @ff_vlc_init_table_from_lengths(ptr noundef nonnull @vec1_vlc, i32 noundef 562, i32 noundef 9, i32 noundef 101, ptr noundef nonnull getelementptr inbounds nuw (i8, ptr @vec1_table, i64 1), i32 noundef 2, ptr noundef nonnull @vec1_table, i32 noundef 2, i32 noundef 1, i32 noundef 0, i32 noundef 0) #11
  br label %4

4:                                                ; preds = %0, %4
  %indvars.iv = phi i64 [ 0, %0 ], [ %indvars.iv.next, %4 ]
  %5 = trunc nuw nsw i64 %indvars.iv to i32
  %6 = uitofp nneg i32 %5 to double
  %7 = fmul nsz double %6, 0x400921FB54442D18
  %8 = fmul nsz double %7, 1.562500e-02
  %9 = call nsz double @llvm.sin.f64(double %8)
  %10 = fptrunc nsz double %9 to float
  %11 = getelementptr inbounds nuw [33 x float], ptr @sin64, i64 0, i64 %indvars.iv
  store float %10, ptr %11, align 4, !tbaa !123
  %indvars.iv.next = add nuw nsw i64 %indvars.iv, 1
  %exitcond.not = icmp eq i64 %indvars.iv.next, 33
  br i1 %exitcond.not, label %.preheader, label %4, !llvm.loop !130

12:                                               ; preds = %.preheader
  call void @llvm.lifetime.end.p0(i64 16, ptr nonnull %1) #11
  ret void

.preheader:                                       ; preds = %4, %.preheader
  %.09 = phi i32 [ %13, %.preheader ], [ 6, %4 ]
  call void @ff_init_ff_sine_windows(i32 noundef %.09) #11
  %13 = add nuw nsw i32 %.09, 1
  %exitcond11.not = icmp eq i32 %13, 14
  br i1 %exitcond11.not, label %12, label %.preheader, !llvm.loop !131
}